target datalayout = "e-m:e-p270:32:32-p271:32:32-p272:64:64-i64:64-i128:128-f80:128-n8:16:32:64-S128"
target triple = "x86_64-pc-linux-gnu"

%struct.rb_data_type_struct = type { ptr, %struct.anon, ptr, ptr, i64 }
%struct.anon = type { ptr, ptr, ptr, ptr, [1 x ptr] }

@ossl_x509req_type = internal constant %struct.rb_data_type_struct { ptr @.str.21, %struct.anon { ptr null, ptr @ossl_x509req_free, ptr null, ptr null, [1 x ptr] zeroinitializer }, ptr null, ptr null, i64 33 }, align 8
@rb_eRuntimeError = external global i64, align 8
@.str = private unnamed_addr constant [24 x i8] c"Req wasn't initialized!\00", align 1
@eX509ReqError = internal global i64 0, align 8
@.str.26 = private unnamed_addr constant [20 x i8] c"X509_REQ_set_pubkey\00", align 1

; Function Attrs: nounwind sspstrong uwtable
define internal i64 @ossl_x509req_set_public_key(i64 noundef %0, i64 noundef %1) #0 {
  %3 = alloca i64, align 8
  %4 = alloca i64, align 8
  %5 = alloca ptr, align 8
  %6 = alloca ptr, align 8
  store i64 %0, ptr %3, align 8, !tbaa !6
  store i64 %1, ptr %4, align 8, !tbaa !6
  call void @llvm.lifetime.start.p0(i64 8, ptr %5) #15
  call void @llvm.lifetime.start.p0(i64 8, ptr %6) #15
  br label %7

7:                                                ; preds = %2
  %8 = load i64, ptr %3, align 8, !tbaa !6
  %9 = call ptr @rb_check_typeddata(i64 noundef %8, ptr noundef @ossl_x509req_type)
  store ptr %9, ptr %5, align 8, !tbaa !10
  %10 = load ptr, ptr %5, align 8, !tbaa !10
  %11 = icmp ne ptr %10, null
  br i1 %11, label %14, label %12

12:                                               ; preds = %7
  %13 = load i64, ptr @rb_eRuntimeError, align 8, !tbaa !6
  call void (i64, ptr, ...) @ossl_raise(i64 noundef %13, ptr noundef @.str) #16
  unreachable

14:                                               ; preds = %7
  br label %15

15:                                               ; preds = %14
  br label %16

16:                                               ; preds = %15
  %17 = load i64, ptr %4, align 8, !tbaa !6
  %18 = call ptr @GetPKeyPtr(i64 noundef %17)
  store ptr %18, ptr %6, align 8, !tbaa !33
  %19 = load ptr, ptr %6, align 8, !tbaa !33
  call void @ossl_pkey_check_public_key(ptr noundef %19)
  %20 = load ptr, ptr %5, align 8, !tbaa !10
  %21 = load ptr, ptr %6, align 8, !tbaa !33
  %22 = call i32 @X509_REQ_set_pubkey(ptr noundef %20, ptr noundef %21)
  %23 = icmp ne i32 %22, 0
  br i1 %23, label %26, label %24

24:                                               ; preds = %16
  %25 = load i64, ptr @eX509ReqError, align 8, !tbaa !6
  call void (i64, ptr, ...) @ossl_raise(i64 noundef %25, ptr noundef @.str.26) #16
  unreachable

26:                                               ; preds = %16
  %27 = load i64, ptr %4, align 8, !tbaa !6
  call void @llvm.lifetime.end.p0(i64 8, ptr %6) #15
  call void @llvm.lifetime.end.p0(i64 8, ptr %5) #15
  ret i64 %27
}